; Function Attrs: mustprogress uwtable
define dso_local void @_ZN3net14QuicSpdyStream16OnPromiseHeadersEN4base16BasicStringPieceINSt7__cxx1112basic_stringIcSt11char_traitsIcESaIcEEEEE(ptr noundef nonnull align 8 dereferenceable(664) %this, ptr %headers_data.coerce0, i64 %headers_data.coerce1) unnamed_addr #0 align 2 {
entry:
  %headers_data = alloca %"class.base::BasicStringPiece", align 8
  store ptr %headers_data.coerce0, ptr %headers_data, align 8
  %0 = getelementptr inbounds i8, ptr %headers_data, i64 8
  store i64 %headers_data.coerce1, ptr %0, align 8
  %decompressed_headers_ = getelementptr inbounds i8, ptr %this, i64 408
  call void @_ZNK4base16BasicStringPieceINSt7__cxx1112basic_stringIcSt11char_traitsIcESaIcEEEE14AppendToStringEPS6_(ptr noundef nonnull align 8 dereferenceable(16) %headers_data, ptr noundef nonnull %decompressed_headers_)
  ret void
}